; Function Attrs: mustprogress nounwind uwtable
define void @_ZNK3spv14SpvBuildLogger14getAllMessagesB5cxx11Ev(ptr dead_on_unwind noalias writable sret(%"class.std::__cxx11::basic_string") align 8 %0, ptr noundef nonnull readonly align 8 captures(none) dereferenceable(96) %1) local_unnamed_addr #0 align 2 {
  %3 = alloca %"class.std::__cxx11::basic_ostringstream", align 8
  call void @_ZNSt7__cxx1119basic_ostringstreamIcSt11char_traitsIcESaIcEEC1Ev(ptr noundef nonnull align 8 dereferenceable(112) %3) #9
  %4 = load ptr, ptr %1, align 8
  %5 = getelementptr inbounds nuw i8, ptr %1, i64 8
  %6 = load ptr, ptr %5, align 8
  %.not19 = icmp eq ptr %4, %6
  br i1 %.not19, label %._crit_edge, label %.lr.ph

.lr.ph:                                           ; preds = %2, %.lr.ph
  %.sroa.013.020 = phi ptr [ %10, %.lr.ph ], [ %4, %2 ]
  %7 = call noundef nonnull align 8 dereferenceable(8) ptr @_ZStlsISt11char_traitsIcEERSt13basic_ostreamIcT_ES5_PKc(ptr noundef nonnull align 8 dereferenceable(8) %3, ptr noundef nonnull @.str) #9
  %8 = call noundef nonnull align 8 dereferenceable(8) ptr @_ZStlsIcSt11char_traitsIcESaIcEERSt13basic_ostreamIT_T0_ES7_RKNSt7__cxx1112basic_stringIS4_S5_T1_EE(ptr noundef nonnull align 8 dereferenceable(8) %7, ptr noundef nonnull align 8 dereferenceable(32) %.sroa.013.020) #9
  %9 = call noundef nonnull align 8 dereferenceable(8) ptr @_ZStlsISt11char_traitsIcEERSt13basic_ostreamIcT_ES5_PKc(ptr noundef nonnull align 8 dereferenceable(8) %8, ptr noundef nonnull @.str.1) #9
  %10 = getelementptr inbounds nuw i8, ptr %.sroa.013.020, i64 32
  %11 = load ptr, ptr %5, align 8
  %.not = icmp eq ptr %10, %11
  br i1 %.not, label %._crit_edge, label %.lr.ph, !llvm.loop !4

._crit_edge:                                      ; preds = %.lr.ph, %2
  %12 = getelementptr inbounds nuw i8, ptr %1, i64 24
  %13 = load ptr, ptr %12, align 8
  %14 = getelementptr inbounds nuw i8, ptr %1, i64 32
  %15 = load ptr, ptr %14, align 8
  %.not1621 = icmp eq ptr %13, %15
  br i1 %.not1621, label %._crit_edge25, label %.lr.ph24

.lr.ph24:                                         ; preds = %._crit_edge, %.lr.ph24
  %.sroa.09.022 = phi ptr [ %19, %.lr.ph24 ], [ %13, %._crit_edge ]
  %16 = call noundef nonnull align 8 dereferenceable(8) ptr @_ZStlsISt11char_traitsIcEERSt13basic_ostreamIcT_ES5_PKc(ptr noundef nonnull align 8 dereferenceable(8) %3, ptr noundef nonnull @.str.2) #9
  %17 = call noundef nonnull align 8 dereferenceable(8) ptr @_ZStlsIcSt11char_traitsIcESaIcEERSt13basic_ostreamIT_T0_ES7_RKNSt7__cxx1112basic_stringIS4_S5_T1_EE(ptr noundef nonnull align 8 dereferenceable(8) %16, ptr noundef nonnull align 8 dereferenceable(32) %.sroa.09.022) #9
  %18 = call noundef nonnull align 8 dereferenceable(8) ptr @_ZStlsISt11char_traitsIcEERSt13basic_ostreamIcT_ES5_PKc(ptr noundef nonnull align 8 dereferenceable(8) %17, ptr noundef nonnull @.str.1) #9
  %19 = getelementptr inbounds nuw i8, ptr %.sroa.09.022, i64 32
  %20 = load ptr, ptr %14, align 8
  %.not16 = icmp eq ptr %19, %20
  br i1 %.not16, label %._crit_edge25, label %.lr.ph24, !llvm.loop !6

._crit_edge25:                                    ; preds = %.lr.ph24, %._crit_edge
  %21 = getelementptr inbounds nuw i8, ptr %1, i64 48
  %22 = load ptr, ptr %21, align 8
  %23 = getelementptr inbounds nuw i8, ptr %1, i64 56
  %24 = load ptr, ptr %23, align 8
  %.not1726 = icmp eq ptr %22, %24
  br i1 %.not1726, label %._crit_edge30, label %.lr.ph29

.lr.ph29:                                         ; preds = %._crit_edge25, %.lr.ph29
  %.sroa.05.027 = phi ptr [ %28, %.lr.ph29 ], [ %22, %._crit_edge25 ]
  %25 = call noundef nonnull align 8 dereferenceable(8) ptr @_ZStlsISt11char_traitsIcEERSt13basic_ostreamIcT_ES5_PKc(ptr noundef nonnull align 8 dereferenceable(8) %3, ptr noundef nonnull @.str.3) #9
  %26 = call noundef nonnull align 8 dereferenceable(8) ptr @_ZStlsIcSt11char_traitsIcESaIcEERSt13basic_ostreamIT_T0_ES7_RKNSt7__cxx1112basic_stringIS4_S5_T1_EE(ptr noundef nonnull align 8 dereferenceable(8) %25, ptr noundef nonnull align 8 dereferenceable(32) %.sroa.05.027) #9
  %27 = call noundef nonnull align 8 dereferenceable(8) ptr @_ZStlsISt11char_traitsIcEERSt13basic_ostreamIcT_ES5_PKc(ptr noundef nonnull align 8 dereferenceable(8) %26, ptr noundef nonnull @.str.1) #9
  %28 = getelementptr inbounds nuw i8, ptr %.sroa.05.027, i64 32
  %29 = load ptr, ptr %23, align 8
  %.not17 = icmp eq ptr %28, %29
  br i1 %.not17, label %._crit_edge30, label %.lr.ph29, !llvm.loop !7

._crit_edge30:                                    ; preds = %.lr.ph29, %._crit_edge25
  %30 = getelementptr inbounds nuw i8, ptr %1, i64 72
  %31 = load ptr, ptr %30, align 8
  %32 = getelementptr inbounds nuw i8, ptr %1, i64 80
  %33 = load ptr, ptr %32, align 8
  %.not1831 = icmp eq ptr %31, %33
  br i1 %.not1831, label %._crit_edge35, label %.lr.ph34

.lr.ph34:                                         ; preds = %._crit_edge30, %.lr.ph34
  %.sroa.01.032 = phi ptr [ %37, %.lr.ph34 ], [ %31, %._crit_edge30 ]
  %34 = call noundef nonnull align 8 dereferenceable(8) ptr @_ZStlsISt11char_traitsIcEERSt13basic_ostreamIcT_ES5_PKc(ptr noundef nonnull align 8 dereferenceable(8) %3, ptr noundef nonnull @.str.4) #9
  %35 = call noundef nonnull align 8 dereferenceable(8) ptr @_ZStlsIcSt11char_traitsIcESaIcEERSt13basic_ostreamIT_T0_ES7_RKNSt7__cxx1112basic_stringIS4_S5_T1_EE(ptr noundef nonnull align 8 dereferenceable(8) %34, ptr noundef nonnull align 8 dereferenceable(32) %.sroa.01.032) #9
  %36 = call noundef nonnull align 8 dereferenceable(8) ptr @_ZStlsISt11char_traitsIcEERSt13basic_ostreamIcT_ES5_PKc(ptr noundef nonnull align 8 dereferenceable(8) %35, ptr noundef nonnull @.str.1) #9
  %37 = getelementptr inbounds nuw i8, ptr %.sroa.01.032, i64 32
  %38 = load ptr, ptr %32, align 8
  %.not18 = icmp eq ptr %37, %38
  br i1 %.not18, label %._crit_edge35, label %.lr.ph34, !llvm.loop !8

._crit_edge35:                                    ; preds = %.lr.ph34, %._crit_edge30
  call void @_ZNKSt7__cxx1119basic_ostringstreamIcSt11char_traitsIcESaIcEE3strEv(ptr dead_on_unwind writable sret(%"class.std::__cxx11::basic_string") align 8 %0, ptr noundef nonnull align 8 dereferenceable(112) %3) #9
  call void @_ZNSt7__cxx1119basic_ostringstreamIcSt11char_traitsIcESaIcEED1Ev(ptr noundef nonnull align 8 dereferenceable(112) %3) #9
  ret void
}